target datalayout = "e-m:e-p270:32:32-p271:32:32-p272:64:64-i64:64-i128:128-f80:128-n8:16:32:64-S128"
target triple = "x86_64-pc-linux-gnu"

%"struct.absl::container_internal::(anonymous namespace)::Test" = type { %"class.testing::Test", [4 x i8], i32, %"class.testing::MockFunction", %"class.testing::MockFunction.16", %"class.testing::MockFunction.19", %"class.testing::MockFunction.22" }
%"class.testing::Test" = type { ptr, %"class.std::unique_ptr" }
%"class.std::unique_ptr" = type { %"struct.std::__uniq_ptr_data" }
%"struct.std::__uniq_ptr_data" = type { %"class.std::__uniq_ptr_impl" }
%"class.std::__uniq_ptr_impl" = type { %"class.std::tuple" }
%"class.std::tuple" = type { %"struct.std::_Tuple_impl" }
%"struct.std::_Tuple_impl" = type { %"struct.std::_Head_base.7" }
%"struct.std::_Head_base.7" = type { ptr }
%"class.testing::MockFunction" = type { %"class.testing::internal::MockFunction" }
%"class.testing::internal::MockFunction" = type { %"class.testing::internal::FunctionMocker" }
%"class.testing::internal::FunctionMocker" = type { %"class.testing::internal::UntypedFunctionMockerBase" }
%"class.testing::internal::UntypedFunctionMockerBase" = type { ptr, ptr, ptr, %"class.std::vector", %"class.std::vector.11" }
%"class.std::vector" = type { %"struct.std::_Vector_base" }
%"struct.std::_Vector_base" = type { %"struct.std::_Vector_base<const void *, std::allocator<const void *>>::_Vector_impl" }
%"struct.std::_Vector_base<const void *, std::allocator<const void *>>::_Vector_impl" = type { %"struct.std::_Vector_base<const void *, std::allocator<const void *>>::_Vector_impl_data" }
%"struct.std::_Vector_base<const void *, std::allocator<const void *>>::_Vector_impl_data" = type { ptr, ptr, ptr }
%"class.std::vector.11" = type { %"struct.std::_Vector_base.12" }
%"struct.std::_Vector_base.12" = type { %"struct.std::_Vector_base<std::shared_ptr<testing::internal::ExpectationBase>, std::allocator<std::shared_ptr<testing::internal::ExpectationBase>>>::_Vector_impl" }
%"struct.std::_Vector_base<std::shared_ptr<testing::internal::ExpectationBase>, std::allocator<std::shared_ptr<testing::internal::ExpectationBase>>>::_Vector_impl" = type { %"struct.std::_Vector_base<std::shared_ptr<testing::internal::ExpectationBase>, std::allocator<std::shared_ptr<testing::internal::ExpectationBase>>>::_Vector_impl_data" }
%"struct.std::_Vector_base<std::shared_ptr<testing::internal::ExpectationBase>, std::allocator<std::shared_ptr<testing::internal::ExpectationBase>>>::_Vector_impl_data" = type { ptr, ptr, ptr }
%"class.testing::MockFunction.16" = type { %"class.testing::internal::MockFunction.17" }
%"class.testing::internal::MockFunction.17" = type { %"class.testing::internal::FunctionMocker.18" }
%"class.testing::internal::FunctionMocker.18" = type { %"class.testing::internal::UntypedFunctionMockerBase" }
%"class.testing::MockFunction.19" = type { %"class.testing::internal::MockFunction.20" }
%"class.testing::internal::MockFunction.20" = type { %"class.testing::internal::FunctionMocker.21" }
%"class.testing::internal::FunctionMocker.21" = type { %"class.testing::internal::UntypedFunctionMockerBase" }
%"class.testing::MockFunction.22" = type { %"class.testing::internal::MockFunction.23" }
%"class.testing::internal::MockFunction.23" = type { %"class.testing::internal::FunctionMocker.24" }
%"class.testing::internal::FunctionMocker.24" = type { %"class.testing::internal::UntypedFunctionMockerBase" }

; Function Attrs: mustprogress nounwind uwtable
define linkonce_odr dso_local void @_ZNSt15__new_allocatorIiED2Ev(ptr noundef nonnull align 1 dereferenceable(1) %0) unnamed_addr #5 comdat align 2 {
  %2 = alloca ptr, align 8
  store ptr %0, ptr %2, align 8, !tbaa !130
  ret void
}

; Function Attrs: mustprogress nounwind uwtable
define linkonce_odr dso_local void @_ZN7testing8internal12MockFunctionIFvPvPiiEED2Ev(ptr noundef nonnull align 8 dereferenceable(72) %0) unnamed_addr #5 comdat align 2 {
  %2 = alloca ptr, align 8
  store ptr %0, ptr %2, align 8, !tbaa !128
  %3 = load ptr, ptr %2, align 8
  %4 = getelementptr inbounds nuw %"class.testing::internal::MockFunction", ptr %3, i32 0, i32 0
  call void @_ZN7testing8internal14FunctionMockerIFvPvPiiEED2Ev(ptr noundef nonnull align 8 dereferenceable(72) %4) #3
  ret void
}

; Function Attrs: mustprogress nounwind uwtable
define linkonce_odr dso_local void @_ZN7testing8internal12MockFunctionIFvPvPiEED2Ev(ptr noundef nonnull align 8 dereferenceable(72) %0) unnamed_addr #5 comdat align 2 {
  %2 = alloca ptr, align 8
  store ptr %0, ptr %2, align 8, !tbaa !126
  %3 = load ptr, ptr %2, align 8
  %4 = getelementptr inbounds nuw %"class.testing::internal::MockFunction.17", ptr %3, i32 0, i32 0
  call void @_ZN7testing8internal14FunctionMockerIFvPvPiEED2Ev(ptr noundef nonnull align 8 dereferenceable(72) %4) #3
  ret void
}

; Function Attrs: mustprogress nounwind uwtable
define linkonce_odr dso_local void @_ZN7testing8internal12MockFunctionIFRiPiEED2Ev(ptr noundef nonnull align 8 dereferenceable(72) %0) unnamed_addr #5 comdat align 2 {
  %2 = alloca ptr, align 8
  store ptr %0, ptr %2, align 8, !tbaa !124
  %3 = load ptr, ptr %2, align 8
  %4 = getelementptr inbounds nuw %"class.testing::internal::MockFunction.20", ptr %3, i32 0, i32 0
  call void @_ZN7testing8internal14FunctionMockerIFRiPiEED2Ev(ptr noundef nonnull align 8 dereferenceable(72) %4) #3
  ret void
}

; Function Attrs: mustprogress nounwind uwtable
define linkonce_odr dso_local void @_ZN7testing8internal12MockFunctionIFvPvPiS3_EED2Ev(ptr noundef nonnull align 8 dereferenceable(72) %0) unnamed_addr #5 comdat align 2 {
  %2 = alloca ptr, align 8
  store ptr %0, ptr %2, align 8, !tbaa !122
  %3 = load ptr, ptr %2, align 8
  %4 = getelementptr inbounds nuw %"class.testing::internal::MockFunction.23", ptr %3, i32 0, i32 0
  call void @_ZN7testing8internal14FunctionMockerIFvPvPiS3_EED2Ev(ptr noundef nonnull align 8 dereferenceable(72) %4) #3
  ret void
}

; Function Attrs: inlinehint mustprogress nounwind uwtable
define internal void @_ZN4absl18container_internal12_GLOBAL__N_14TestD2Ev(ptr noundef nonnull align 8 dereferenceable(312) %0) unnamed_addr #10 align 2 {
  %2 = alloca ptr, align 8
  store ptr %0, ptr %2, align 8, !tbaa !54
  %3 = load ptr, ptr %2, align 8
  store ptr getelementptr inbounds inrange(-16, 48) ({ [8 x ptr] }, ptr @_ZTVN4absl18container_internal12_GLOBAL__N_14TestE, i32 0, i32 0, i32 2), ptr %3, align 8, !tbaa !27
  %4 = getelementptr inbounds nuw %"struct.absl::container_internal::(anonymous namespace)::Test", ptr %3, i32 0, i32 6
  call void @_ZN7testing8internal12MockFunctionIFvPvPiS3_EED2Ev(ptr noundef nonnull align 8 dereferenceable(72) %4) #3
  %5 = getelementptr inbounds nuw %"struct.absl::container_internal::(anonymous namespace)::Test", ptr %3, i32 0, i32 5
  call void @_ZN7testing8internal12MockFunctionIFRiPiEED2Ev(ptr noundef nonnull align 8 dereferenceable(72) %5) #3
  %6 = getelementptr inbounds nuw %"struct.absl::container_internal::(anonymous namespace)::Test", ptr %3, i32 0, i32 4
  call void @_ZN7testing8internal12MockFunctionIFvPvPiEED2Ev(ptr noundef nonnull align 8 dereferenceable(72) %6) #3
  %7 = getelementptr inbounds nuw %"struct.absl::container_internal::(anonymous namespace)::Test", ptr %3, i32 0, i32 3
  call void @_ZN7testing8internal12MockFunctionIFvPvPiiEED2Ev(ptr noundef nonnull align 8 dereferenceable(72) %7) #3
  %8 = getelementptr inbounds i8, ptr %3, i64 16
  call void @_ZNSt15__new_allocatorIiED2Ev(ptr noundef nonnull align 1 dereferenceable(1) %8) #3
  call void @_ZN7testing4TestD2Ev(ptr noundef nonnull align 8 dereferenceable(16) %3) #3
  ret void
}

; Function Attrs: mustprogress nounwind uwtable
define internal void @_ZN4absl18container_internal12_GLOBAL__N_117Test_destroy_TestD0Ev(ptr noundef nonnull align 8 dereferenceable(312) %0) unnamed_addr #5 align 2 {
  %2 = alloca ptr, align 8
  store ptr %0, ptr %2, align 8, !tbaa !776
  %3 = load ptr, ptr %2, align 8
  call void @_ZN4absl18container_internal12_GLOBAL__N_14TestD2Ev(ptr noundef nonnull align 8 dereferenceable(312) %3) #3
  call void @_ZdlPvm(ptr noundef %3, i64 noundef 312) #25
  ret void
}